target datalayout = "e-m:e-p270:32:32-p271:32:32-p272:64:64-i64:64-i128:128-f80:128-n8:16:32:64-S128"
target triple = "x86_64-pc-linux-gnu"

%"struct.folly::unsafe_default_initialized_cv" = type { i8 }
%"class.folly::Function" = type { %"union.folly::detail::function::Data", ptr, ptr }
%"union.folly::detail::function::Data" = type { %"struct.folly::detail::function::Data::BigTrivialLayout", [24 x i8] }
%"struct.folly::detail::function::Data::BigTrivialLayout" = type { ptr, i64, i64 }
%"class.std::chrono::duration" = type { i64 }

@_ZN5folly26unsafe_default_initializedE = linkonce_odr constant %"struct.folly::unsafe_default_initialized_cv" undef, comdat, align 1

; Function Attrs: noinline noreturn nounwind uwtable
define linkonce_odr hidden void @__clang_call_terminate(ptr noundef %0) #11 comdat {
  %2 = call ptr @__cxa_begin_catch(ptr %0) #25
  call void @_ZSt9terminatev() #34
  unreachable
}

; Function Attrs: mustprogress nounwind uwtable
define linkonce_odr noundef i64 @_ZNK5folly8FunctionIFvvEE4execENS_6detail8function2OpEPNS4_4DataES7_(ptr noundef nonnull align 16 dereferenceable(64) %0, i32 noundef %1, ptr noundef %2, ptr noundef %3) #0 comdat align 2 {
  %5 = alloca i64, align 8
  %6 = alloca ptr, align 8
  %7 = alloca i32, align 4
  %8 = alloca ptr, align 8
  %9 = alloca ptr, align 8
  store ptr %0, ptr %6, align 8, !tbaa !33
  store i32 %1, ptr %7, align 4, !tbaa !419
  store ptr %2, ptr %8, align 8, !tbaa !417
  store ptr %3, ptr %9, align 8, !tbaa !417
  %10 = load ptr, ptr %6, align 8
  %11 = getelementptr inbounds nuw %"class.folly::Function", ptr %10, i32 0, i32 2
  %12 = load ptr, ptr %11, align 8, !tbaa !337
  %13 = icmp ne ptr %12, null
  br i1 %13, label %15, label %14

14:                                               ; preds = %4
  store i64 0, ptr %5, align 8
  br label %22

15:                                               ; preds = %4
  %16 = getelementptr inbounds nuw %"class.folly::Function", ptr %10, i32 0, i32 2
  %17 = load ptr, ptr %16, align 8, !tbaa !337
  %18 = load i32, ptr %7, align 4, !tbaa !419
  %19 = load ptr, ptr %8, align 8, !tbaa !417
  %20 = load ptr, ptr %9, align 8, !tbaa !417
  %21 = call noundef i64 %17(i32 noundef %18, ptr noundef %19, ptr noundef %20) #25
  store i64 %21, ptr %5, align 8
  br label %22

22:                                               ; preds = %15, %14
  %23 = load i64, ptr %5, align 8
  ret i64 %23
}

; Function Attrs: alwaysinline mustprogress nounwind uwtable
define linkonce_odr hidden noundef ptr @_ZNK5folly29unsafe_default_initialized_cvcvT_IPvEEv(ptr noundef nonnull align 1 dereferenceable(1) %0) #14 comdat align 2 {
  %2 = alloca ptr, align 8
  store ptr %0, ptr %2, align 8, !tbaa !415
  ret ptr null
}

; Function Attrs: mustprogress nounwind uwtable
define linkonce_odr void @_ZN5folly8FunctionIFvvEED2Ev(ptr noundef nonnull align 16 dereferenceable(64) %0) unnamed_addr #0 comdat align 2 personality ptr @__gxx_personality_v0 {
  %2 = alloca ptr, align 8
  store ptr %0, ptr %2, align 8, !tbaa !33
  %3 = load ptr, ptr %2, align 8
  %4 = getelementptr inbounds nuw %"class.folly::Function", ptr %3, i32 0, i32 0
  %5 = invoke noundef i64 @_ZNK5folly8FunctionIFvvEE4execENS_6detail8function2OpEPNS4_4DataES7_(ptr noundef nonnull align 16 dereferenceable(64) %3, i32 noundef 1, ptr noundef %4, ptr noundef null)
          to label %6 unwind label %7

6:                                                ; preds = %1
  ret void

7:                                                ; preds = %1
  %8 = landingpad { ptr, i32 }
          catch ptr null
  %9 = extractvalue { ptr, i32 } %8, 0
  call void @__clang_call_terminate(ptr %9) #34
  unreachable
}

; Function Attrs: mustprogress nounwind uwtable
define linkonce_odr void @_ZN5folly8FunctionIFvvEEC2EDn(ptr noundef nonnull align 16 dereferenceable(64) %0, ptr %1) unnamed_addr #0 comdat align 2 {
  %3 = alloca ptr, align 8
  %4 = alloca ptr, align 8
  store ptr %0, ptr %3, align 8, !tbaa !33
  store ptr %1, ptr %4, align 8, !tbaa !619
  %5 = load ptr, ptr %3, align 8
  %6 = getelementptr inbounds nuw %"class.folly::Function", ptr %5, i32 0, i32 0
  %7 = call noundef ptr @_ZNK5folly29unsafe_default_initialized_cvcvT_IPvEEv(ptr noundef nonnull align 1 dereferenceable(1) @_ZN5folly26unsafe_default_initializedE) #25
  store ptr %7, ptr %6, align 16, !tbaa !184
  %8 = getelementptr inbounds nuw %"class.folly::Function", ptr %5, i32 0, i32 1
  store ptr @_ZN5folly6detail8function14FunctionTraitsIFvvEE10uninitCallERNS1_4DataE, ptr %8, align 16, !tbaa !336
  %9 = getelementptr inbounds nuw %"class.folly::Function", ptr %5, i32 0, i32 2
  store ptr null, ptr %9, align 8, !tbaa !337
  ret void
}

; Function Attrs: mustprogress nounwind uwtable
define linkonce_odr void @_ZNSt6chrono8durationIlSt5ratioILl1ELl1000EEEC2IivEERKT_(ptr noundef nonnull align 8 dereferenceable(8) %0, ptr noundef nonnull align 4 dereferenceable(4) %1) unnamed_addr #0 comdat align 2 {
  %3 = alloca ptr, align 8
  %4 = alloca ptr, align 8
  store ptr %0, ptr %3, align 8, !tbaa !616
  store ptr %1, ptr %4, align 8, !tbaa !182
  %5 = load ptr, ptr %3, align 8
  %6 = getelementptr inbounds nuw %"class.std::chrono::duration", ptr %5, i32 0, i32 0
  %7 = load ptr, ptr %4, align 8, !tbaa !182
  %8 = load i32, ptr %7, align 4, !tbaa !35
  %9 = sext i32 %8 to i64
  store i64 %9, ptr %6, align 8, !tbaa !618
  ret void
}

; Function Attrs: mustprogress nounwind uwtable
define linkonce_odr void @_ZN5folly8FunctionIFvvEEC2EOS2_(ptr noundef nonnull align 16 dereferenceable(64) %0, ptr noundef nonnull align 16 dereferenceable(64) %1) unnamed_addr #0 comdat align 2 {
  %3 = alloca ptr, align 8
  %4 = alloca ptr, align 8
  store ptr %0, ptr %3, align 8, !tbaa !33
  store ptr %1, ptr %4, align 8, !tbaa !33
  %5 = load ptr, ptr %3, align 8
  %6 = getelementptr inbounds nuw %"class.folly::Function", ptr %5, i32 0, i32 0
  %7 = call noundef ptr @_ZNK5folly29unsafe_default_initialized_cvcvT_IPvEEv(ptr noundef nonnull align 1 dereferenceable(1) @_ZN5folly26unsafe_default_initializedE) #25
  store ptr %7, ptr %6, align 16, !tbaa !184
  %8 = getelementptr inbounds nuw %"class.folly::Function", ptr %5, i32 0, i32 1
  %9 = load ptr, ptr %4, align 8, !tbaa !33
  %10 = getelementptr inbounds nuw %"class.folly::Function", ptr %9, i32 0, i32 1
  %11 = load ptr, ptr %10, align 16, !tbaa !336
  store ptr %11, ptr %8, align 16, !tbaa !336
  %12 = getelementptr inbounds nuw %"class.folly::Function", ptr %5, i32 0, i32 2
  %13 = load ptr, ptr %4, align 8, !tbaa !33
  %14 = getelementptr inbounds nuw %"class.folly::Function", ptr %13, i32 0, i32 2
  %15 = load ptr, ptr %14, align 8, !tbaa !337
  store ptr %15, ptr %12, align 8, !tbaa !337
  %16 = load ptr, ptr %4, align 8, !tbaa !33
  %17 = getelementptr inbounds nuw %"class.folly::Function", ptr %16, i32 0, i32 1
  store ptr @_ZN5folly6detail8function14FunctionTraitsIFvvEE10uninitCallERNS1_4DataE, ptr %17, align 16, !tbaa !336
  %18 = load ptr, ptr %4, align 8, !tbaa !33
  %19 = getelementptr inbounds nuw %"class.folly::Function", ptr %18, i32 0, i32 2
  store ptr null, ptr %19, align 8, !tbaa !337
  %20 = load ptr, ptr %4, align 8, !tbaa !33
  %21 = getelementptr inbounds nuw %"class.folly::Function", ptr %20, i32 0, i32 0
  %22 = getelementptr inbounds nuw %"class.folly::Function", ptr %5, i32 0, i32 0
  %23 = call noundef i64 @_ZNK5folly8FunctionIFvvEE4execENS_6detail8function2OpEPNS4_4DataES7_(ptr noundef nonnull align 16 dereferenceable(64) %5, i32 noundef 0, ptr noundef %21, ptr noundef %22)
  ret void
}

; Function Attrs: mustprogress uwtable
define void @_ZN5folly20IOThreadPoolExecutor3addENS_8FunctionIFvvEEE(ptr noundef nonnull align 64 dereferenceable(568) %0, ptr noundef %1) unnamed_addr #2 align 2 personality ptr @__gxx_personality_v0 {
  %3 = alloca ptr, align 8
  %4 = alloca ptr, align 8
  %5 = alloca %"class.folly::Function", align 16
  %6 = alloca %"class.std::chrono::duration", align 8
  %7 = alloca i32, align 4
  %8 = alloca ptr, align 8
  %9 = alloca i32, align 4
  %10 = alloca %"class.folly::Function", align 16
  store ptr %0, ptr %3, align 8, !tbaa !31
  store ptr %1, ptr %4, align 8, !tbaa !33
  %11 = load ptr, ptr %3, align 8
  call void @_ZN5folly8FunctionIFvvEEC2EOS2_(ptr noundef nonnull align 16 dereferenceable(64) %5, ptr noundef nonnull align 16 dereferenceable(64) %1) #25
  call void @llvm.lifetime.start.p0(i64 4, ptr %7) #25
  store i32 0, ptr %7, align 4, !tbaa !35
  invoke void @_ZNSt6chrono8durationIlSt5ratioILl1ELl1000EEEC2IivEERKT_(ptr noundef nonnull align 8 dereferenceable(8) %6, ptr noundef nonnull align 4 dereferenceable(4) %7)
          to label %12 unwind label %19

12:                                               ; preds = %2
  call void @_ZN5folly8FunctionIFvvEEC2EDn(ptr noundef nonnull align 16 dereferenceable(64) %10, ptr null) #25
  %13 = getelementptr inbounds nuw %"class.std::chrono::duration", ptr %6, i32 0, i32 0
  %14 = load i64, ptr %13, align 8
  %15 = load ptr, ptr %11, align 64, !tbaa !29
  %16 = getelementptr inbounds ptr, ptr %15, i64 7
  %17 = load ptr, ptr %16, align 8
  invoke void %17(ptr noundef nonnull align 64 dereferenceable(568) %11, ptr noundef %5, i64 %14, ptr noundef %10)
          to label %18 unwind label %23

18:                                               ; preds = %12
  call void @_ZN5folly8FunctionIFvvEED2Ev(ptr noundef nonnull align 16 dereferenceable(64) %10) #25
  call void @llvm.lifetime.end.p0(i64 4, ptr %7) #25
  call void @_ZN5folly8FunctionIFvvEED2Ev(ptr noundef nonnull align 16 dereferenceable(64) %5) #25
  ret void

19:                                               ; preds = %2
  %20 = landingpad { ptr, i32 }
          cleanup
  %21 = extractvalue { ptr, i32 } %20, 0
  store ptr %21, ptr %8, align 8
  %22 = extractvalue { ptr, i32 } %20, 1
  store i32 %22, ptr %9, align 4
  br label %27

23:                                               ; preds = %12
  %24 = landingpad { ptr, i32 }
          cleanup
  %25 = extractvalue { ptr, i32 } %24, 0
  store ptr %25, ptr %8, align 8
  %26 = extractvalue { ptr, i32 } %24, 1
  store i32 %26, ptr %9, align 4
  call void @_ZN5folly8FunctionIFvvEED2Ev(ptr noundef nonnull align 16 dereferenceable(64) %10) #25
  br label %27

27:                                               ; preds = %23, %19
  call void @llvm.lifetime.end.p0(i64 4, ptr %7) #25
  call void @_ZN5folly8FunctionIFvvEED2Ev(ptr noundef nonnull align 16 dereferenceable(64) %5) #25
  br label %28

28:                                               ; preds = %27
  %29 = load ptr, ptr %8, align 8
  %30 = load i32, ptr %9, align 4
  %31 = insertvalue { ptr, i32 } poison, ptr %29, 0
  %32 = insertvalue { ptr, i32 } %31, i32 %30, 1
  resume { ptr, i32 } %32
}