; Function Attrs: mustprogress uwtable
define void @_ZN5folly20IOThreadPoolExecutor3addENS_8FunctionIFvvEEE(ptr noundef nonnull align 64 dereferenceable(568) %0, ptr noundef %1) unnamed_addr #2 align 2 personality ptr @__gxx_personality_v0 {
  %3 = alloca %"class.folly::Function", align 16
  %4 = alloca %"class.folly::Function", align 16
  store ptr null, ptr %3, align 16, !tbaa !48
  %5 = getelementptr inbounds nuw i8, ptr %3, i64 48
  %6 = getelementptr inbounds nuw i8, ptr %1, i64 48
  %7 = load ptr, ptr %6, align 16, !tbaa !49
  store ptr %7, ptr %5, align 16, !tbaa !49
  %8 = getelementptr inbounds nuw i8, ptr %3, i64 56
  %9 = getelementptr inbounds nuw i8, ptr %1, i64 56
  %10 = load ptr, ptr %9, align 8, !tbaa !51
  store ptr %10, ptr %8, align 8, !tbaa !51
  store ptr @_ZN5folly6detail8function14FunctionTraitsIFvvEE10uninitCallERNS1_4DataE, ptr %6, align 16, !tbaa !49
  store ptr null, ptr %9, align 8, !tbaa !51
  %.not.i.i = icmp eq ptr %10, null
  br i1 %.not.i.i, label %_ZN5folly8FunctionIFvvEEC2EOS2_.exit, label %11

11:                                               ; preds = %2
  %12 = call noundef i64 %10(i32 noundef 0, ptr noundef nonnull align 16 dereferenceable(64) %1, ptr noundef nonnull align 16 dereferenceable(64) %3) #25
  br label %_ZN5folly8FunctionIFvvEEC2EOS2_.exit

_ZN5folly8FunctionIFvvEEC2EOS2_.exit:             ; preds = %2, %11
  store ptr null, ptr %4, align 16, !tbaa !48
  %13 = getelementptr inbounds nuw i8, ptr %4, i64 48
  store ptr @_ZN5folly6detail8function14FunctionTraitsIFvvEE10uninitCallERNS1_4DataE, ptr %13, align 16, !tbaa !49
  %14 = getelementptr inbounds nuw i8, ptr %4, i64 56
  store ptr null, ptr %14, align 8, !tbaa !51
  %15 = load ptr, ptr %0, align 64, !tbaa !25
  %16 = getelementptr inbounds nuw i8, ptr %15, i64 56
  %17 = load ptr, ptr %16, align 8
  invoke void %17(ptr noundef nonnull align 64 dereferenceable(568) %0, ptr noundef nonnull %3, i64 0, ptr noundef nonnull %4)
          to label %18 unwind label %25

18:                                               ; preds = %_ZN5folly8FunctionIFvvEEC2EOS2_.exit
  %19 = load ptr, ptr %14, align 8, !tbaa !51
  %.not.i.i2 = icmp eq ptr %19, null
  br i1 %.not.i.i2, label %_ZN5folly8FunctionIFvvEED2Ev.exit, label %20

20:                                               ; preds = %18
  %21 = call noundef i64 %19(i32 noundef 1, ptr noundef nonnull align 16 dereferenceable(64) %4, ptr noundef null) #25
  br label %_ZN5folly8FunctionIFvvEED2Ev.exit

_ZN5folly8FunctionIFvvEED2Ev.exit:                ; preds = %18, %20
  %22 = load ptr, ptr %8, align 8, !tbaa !51
  %.not.i.i3 = icmp eq ptr %22, null
  br i1 %.not.i.i3, label %_ZN5folly8FunctionIFvvEED2Ev.exit4, label %23

23:                                               ; preds = %_ZN5folly8FunctionIFvvEED2Ev.exit
  %24 = call noundef i64 %22(i32 noundef 1, ptr noundef nonnull align 16 dereferenceable(64) %3, ptr noundef null) #25
  br label %_ZN5folly8FunctionIFvvEED2Ev.exit4

_ZN5folly8FunctionIFvvEED2Ev.exit4:               ; preds = %_ZN5folly8FunctionIFvvEED2Ev.exit, %23
  ret void

25:                                               ; preds = %_ZN5folly8FunctionIFvvEEC2EOS2_.exit
  %26 = landingpad { ptr, i32 }
          cleanup
  %27 = load ptr, ptr %14, align 8, !tbaa !51
  %.not.i.i5 = icmp eq ptr %27, null
  br i1 %.not.i.i5, label %_ZN5folly8FunctionIFvvEED2Ev.exit6, label %28

28:                                               ; preds = %25
  %29 = call noundef i64 %27(i32 noundef 1, ptr noundef nonnull align 16 dereferenceable(64) %4, ptr noundef null) #25
  br label %_ZN5folly8FunctionIFvvEED2Ev.exit6

_ZN5folly8FunctionIFvvEED2Ev.exit6:               ; preds = %25, %28
  %30 = load ptr, ptr %8, align 8, !tbaa !51
  %.not.i.i7 = icmp eq ptr %30, null
  br i1 %.not.i.i7, label %_ZN5folly8FunctionIFvvEED2Ev.exit8, label %31

31:                                               ; preds = %_ZN5folly8FunctionIFvvEED2Ev.exit6
  %32 = call noundef i64 %30(i32 noundef 1, ptr noundef nonnull align 16 dereferenceable(64) %3, ptr noundef null) #25
  br label %_ZN5folly8FunctionIFvvEED2Ev.exit8

_ZN5folly8FunctionIFvvEED2Ev.exit8:               ; preds = %_ZN5folly8FunctionIFvvEED2Ev.exit6, %31
  resume { ptr, i32 } %26
}